; Function Attrs: nounwind uwtable
define internal i32 @Cba_NtkNewStrId(ptr noundef readonly captures(none) %0, ptr noundef readonly captures(none) %1, ...) unnamed_addr #0 {
  %3 = alloca [1 x %struct.__va_list_tag], align 16
  %.val = load ptr, ptr %0, align 8
  %4 = getelementptr i8, ptr %.val, i64 16
  %.val.val = load ptr, ptr %4, align 8
  %5 = tail call ptr @Abc_NamBuffer(ptr noundef %.val.val) #28
  call void @llvm.va_start.p0(ptr nonnull %3)
  %6 = getelementptr i8, ptr %5, i64 4
  %.val20 = load i32, ptr %6, align 4
  %7 = add nsw i32 %.val20, 1000
  %8 = load i32, ptr %5, align 8
  %.not.i = icmp slt i32 %8, %7
  %9 = getelementptr i8, ptr %5, i64 8
  %10 = load ptr, ptr %9, align 8
  br i1 %.not.i, label %11, label %Vec_StrGrow.exit

11:                                               ; preds = %2
  %.not9.i = icmp eq ptr %10, null
  %12 = sext i32 %7 to i64
  br i1 %.not9.i, label %15, label %13

13:                                               ; preds = %11
  %14 = call ptr @realloc(ptr noundef nonnull %10, i64 noundef %12) #29
  %.val22.pre.pre = load i32, ptr %6, align 4
  br label %17

15:                                               ; preds = %11
  %16 = call noalias ptr @malloc(i64 noundef %12) #30
  br label %17

17:                                               ; preds = %15, %13
  %.val22.pre = phi i32 [ %.val22.pre.pre, %13 ], [ %.val20, %15 ]
  %18 = phi ptr [ %14, %13 ], [ %16, %15 ]
  store ptr %18, ptr %9, align 8
  store i32 %7, ptr %5, align 8
  br label %Vec_StrGrow.exit

Vec_StrGrow.exit:                                 ; preds = %2, %17
  %.val23 = phi ptr [ %18, %17 ], [ %10, %2 ]
  %.val22 = phi i32 [ %.val22.pre, %17 ], [ %.val20, %2 ]
  %19 = getelementptr i8, ptr %5, i64 8
  %20 = sext i32 %.val22 to i64
  %21 = getelementptr inbounds i8, ptr %.val23, i64 %20
  %22 = call i32 @vsnprintf(ptr noundef %21, i64 noundef 1000, ptr noundef %1, ptr noundef nonnull %3) #28
  %23 = icmp sgt i32 %22, 1000
  br i1 %23, label %24, label %40

24:                                               ; preds = %Vec_StrGrow.exit
  %.val21 = load i32, ptr %6, align 4
  %25 = add nuw i32 %22, 1000
  %26 = add i32 %25, %.val21
  %27 = load i32, ptr %5, align 8
  %.not.i30 = icmp slt i32 %27, %26
  %.val25.pre = load ptr, ptr %19, align 8
  br i1 %.not.i30, label %28, label %Vec_StrGrow.exit32

28:                                               ; preds = %24
  %.not9.i31 = icmp eq ptr %.val25.pre, null
  %29 = sext i32 %26 to i64
  br i1 %.not9.i31, label %32, label %30

30:                                               ; preds = %28
  %31 = call ptr @realloc(ptr noundef nonnull %.val25.pre, i64 noundef %29) #29
  %.val24.pre.pre = load i32, ptr %6, align 4
  br label %34

32:                                               ; preds = %28
  %33 = call noalias ptr @malloc(i64 noundef %29) #30
  br label %34

34:                                               ; preds = %32, %30
  %.val24.pre = phi i32 [ %.val24.pre.pre, %30 ], [ %.val21, %32 ]
  %35 = phi ptr [ %31, %30 ], [ %33, %32 ]
  store ptr %35, ptr %19, align 8
  store i32 %26, ptr %5, align 8
  br label %Vec_StrGrow.exit32

Vec_StrGrow.exit32:                               ; preds = %24, %34
  %.val25 = phi ptr [ %.val25.pre, %24 ], [ %35, %34 ]
  %.val24 = phi i32 [ %.val21, %24 ], [ %.val24.pre, %34 ]
  %36 = sext i32 %.val24 to i64
  %37 = getelementptr inbounds i8, ptr %.val25, i64 %36
  %38 = zext nneg i32 %22 to i64
  %39 = call i32 @vsnprintf(ptr noundef %37, i64 noundef %38, ptr noundef %1, ptr noundef nonnull %3) #28
  br label %40

40:                                               ; preds = %Vec_StrGrow.exit32, %Vec_StrGrow.exit
  call void @llvm.va_end.p0(ptr nonnull %3)
  %.val26 = load i32, ptr %6, align 4
  %.val27 = load ptr, ptr %19, align 8
  %41 = sext i32 %.val26 to i64
  %42 = getelementptr inbounds i8, ptr %.val27, i64 %41
  %43 = sext i32 %22 to i64
  %44 = getelementptr inbounds i8, ptr %42, i64 %43
  %45 = call i32 @Abc_NamStrFindOrAddLim(ptr noundef %.val.val, ptr noundef %42, ptr noundef %44, ptr noundef null) #28
  ret i32 %45
}